; Function Attrs: nounwind uwtable
define dso_local i32 @range_compare(ptr noundef readonly captures(none) %0, ptr noundef readonly captures(none) %1, ptr noundef %2) local_unnamed_addr #0 {
  %4 = alloca %struct.RangeBound, align 8
  %5 = alloca %struct.RangeBound, align 8
  %6 = alloca %struct.RangeBound, align 8
  %7 = alloca %struct.RangeBound, align 8
  %8 = alloca i8, align 1
  %9 = alloca i8, align 1
  %10 = load ptr, ptr %0, align 8
  %11 = load ptr, ptr %1, align 8
  call void @llvm.lifetime.start.p0(i64 16, ptr nonnull %4) #14
  call void @llvm.lifetime.start.p0(i64 16, ptr nonnull %5) #14
  call void @llvm.lifetime.start.p0(i64 16, ptr nonnull %6) #14
  call void @llvm.lifetime.start.p0(i64 16, ptr nonnull %7) #14
  call void @llvm.lifetime.start.p0(i64 1, ptr nonnull %8) #14
  call void @llvm.lifetime.start.p0(i64 1, ptr nonnull %9) #14
  call void @range_deserialize(ptr noundef %2, ptr noundef %10, ptr noundef nonnull %4, ptr noundef nonnull %5, ptr noundef nonnull %8)
  call void @range_deserialize(ptr noundef %2, ptr noundef %11, ptr noundef nonnull %6, ptr noundef nonnull %7, ptr noundef nonnull %9)
  %12 = load i8, ptr %8, align 1, !range !7, !noundef !8
  %13 = trunc nuw i8 %12 to i1
  %14 = load i8, ptr %9, align 1, !range !7, !noundef !8
  br i1 %13, label %15, label %18

15:                                               ; preds = %3
  %16 = xor i8 %14, 1
  %17 = zext nneg i8 %16 to i32
  %spec.select = sub nsw i32 0, %17
  br label %range_cmp_bounds.exit12

18:                                               ; preds = %3
  %19 = trunc nuw i8 %14 to i1
  br i1 %19, label %range_cmp_bounds.exit12, label %20

20:                                               ; preds = %18
  %21 = getelementptr inbounds nuw i8, ptr %4, i64 8
  %22 = load i8, ptr %21, align 8, !range !7, !noundef !8
  %23 = trunc nuw i8 %22 to i1
  %24 = getelementptr inbounds nuw i8, ptr %6, i64 8
  %25 = load i8, ptr %24, align 8, !range !7, !noundef !8
  %26 = trunc nuw i8 %25 to i1
  br i1 %23, label %27, label %40

27:                                               ; preds = %20
  %28 = getelementptr inbounds nuw i8, ptr %4, i64 10
  %29 = load i8, ptr %28, align 2, !range !7, !noundef !8
  br i1 %26, label %30, label %37

30:                                               ; preds = %27
  %31 = getelementptr inbounds nuw i8, ptr %6, i64 10
  %32 = load i8, ptr %31, align 2, !range !7, !noundef !8
  %33 = icmp eq i8 %29, %32
  br i1 %33, label %range_cmp_bounds.exit, label %34

34:                                               ; preds = %30
  %35 = trunc nuw i8 %29 to i1
  %36 = select i1 %35, i32 -1, i32 1
  br label %range_cmp_bounds.exit12

37:                                               ; preds = %27
  %38 = trunc nuw i8 %29 to i1
  %39 = select i1 %38, i32 -1, i32 1
  br label %range_cmp_bounds.exit12

40:                                               ; preds = %20
  br i1 %26, label %41, label %46

41:                                               ; preds = %40
  %42 = getelementptr inbounds nuw i8, ptr %6, i64 10
  %43 = load i8, ptr %42, align 2, !range !7, !noundef !8
  %44 = trunc nuw i8 %43 to i1
  %45 = select i1 %44, i32 1, i32 -1
  br label %range_cmp_bounds.exit12

46:                                               ; preds = %40
  %47 = getelementptr inbounds nuw i8, ptr %2, i64 296
  %48 = getelementptr inbounds nuw i8, ptr %2, i64 292
  %49 = load i32, ptr %48, align 4
  %50 = load i64, ptr %4, align 8
  %51 = load i64, ptr %6, align 8
  %52 = tail call i64 @FunctionCall2Coll(ptr noundef nonnull %47, i32 noundef %49, i64 noundef %50, i64 noundef %51) #14
  %53 = trunc i64 %52 to i32
  %54 = icmp eq i32 %53, 0
  br i1 %54, label %55, label %range_cmp_bounds.exit12

55:                                               ; preds = %46
  %56 = getelementptr inbounds nuw i8, ptr %4, i64 9
  %57 = load i8, ptr %56, align 1, !range !7, !noundef !8
  %58 = trunc nuw i8 %57 to i1
  %59 = getelementptr inbounds nuw i8, ptr %6, i64 9
  %60 = load i8, ptr %59, align 1, !range !7, !noundef !8
  %61 = trunc nuw i8 %60 to i1
  br i1 %58, label %75, label %62

62:                                               ; preds = %55
  %63 = getelementptr inbounds nuw i8, ptr %4, i64 10
  %64 = load i8, ptr %63, align 2, !range !7, !noundef !8
  br i1 %61, label %72, label %65

65:                                               ; preds = %62
  %66 = getelementptr inbounds nuw i8, ptr %6, i64 10
  %67 = load i8, ptr %66, align 2, !range !7, !noundef !8
  %68 = icmp eq i8 %64, %67
  br i1 %68, label %range_cmp_bounds.exit, label %69

69:                                               ; preds = %65
  %70 = trunc nuw i8 %64 to i1
  %71 = select i1 %70, i32 1, i32 -1
  br label %range_cmp_bounds.exit12

72:                                               ; preds = %62
  %73 = trunc nuw i8 %64 to i1
  %74 = select i1 %73, i32 1, i32 -1
  br label %range_cmp_bounds.exit12

75:                                               ; preds = %55
  br i1 %61, label %range_cmp_bounds.exit, label %76

76:                                               ; preds = %75
  %77 = getelementptr inbounds nuw i8, ptr %6, i64 10
  %78 = load i8, ptr %77, align 2, !range !7, !noundef !8
  %79 = trunc nuw i8 %78 to i1
  %80 = select i1 %79, i32 -1, i32 1
  br label %range_cmp_bounds.exit12

range_cmp_bounds.exit:                            ; preds = %75, %65, %30
  %81 = getelementptr inbounds nuw i8, ptr %5, i64 8
  %82 = load i8, ptr %81, align 8, !range !7, !noundef !8
  %83 = trunc nuw i8 %82 to i1
  %84 = getelementptr inbounds nuw i8, ptr %7, i64 8
  %85 = load i8, ptr %84, align 8, !range !7, !noundef !8
  %86 = trunc nuw i8 %85 to i1
  br i1 %83, label %87, label %100

87:                                               ; preds = %range_cmp_bounds.exit
  %88 = getelementptr inbounds nuw i8, ptr %5, i64 10
  %89 = load i8, ptr %88, align 2, !range !7, !noundef !8
  br i1 %86, label %90, label %97

90:                                               ; preds = %87
  %91 = getelementptr inbounds nuw i8, ptr %7, i64 10
  %92 = load i8, ptr %91, align 2, !range !7, !noundef !8
  %93 = icmp eq i8 %89, %92
  br i1 %93, label %range_cmp_bounds.exit12, label %94

94:                                               ; preds = %90
  %95 = trunc nuw i8 %89 to i1
  %96 = select i1 %95, i32 -1, i32 1
  br label %range_cmp_bounds.exit12

97:                                               ; preds = %87
  %98 = trunc nuw i8 %89 to i1
  %99 = select i1 %98, i32 -1, i32 1
  br label %range_cmp_bounds.exit12

100:                                              ; preds = %range_cmp_bounds.exit
  br i1 %86, label %101, label %106

101:                                              ; preds = %100
  %102 = getelementptr inbounds nuw i8, ptr %7, i64 10
  %103 = load i8, ptr %102, align 2, !range !7, !noundef !8
  %104 = trunc nuw i8 %103 to i1
  %105 = select i1 %104, i32 1, i32 -1
  br label %range_cmp_bounds.exit12

106:                                              ; preds = %100
  %107 = getelementptr inbounds nuw i8, ptr %2, i64 296
  %108 = getelementptr inbounds nuw i8, ptr %2, i64 292
  %109 = load i32, ptr %108, align 4
  %110 = load i64, ptr %5, align 8
  %111 = load i64, ptr %7, align 8
  %112 = tail call i64 @FunctionCall2Coll(ptr noundef nonnull %107, i32 noundef %109, i64 noundef %110, i64 noundef %111) #14
  %113 = trunc i64 %112 to i32
  %114 = icmp eq i32 %113, 0
  br i1 %114, label %115, label %range_cmp_bounds.exit12

115:                                              ; preds = %106
  %116 = getelementptr inbounds nuw i8, ptr %5, i64 9
  %117 = load i8, ptr %116, align 1, !range !7, !noundef !8
  %118 = trunc nuw i8 %117 to i1
  %119 = getelementptr inbounds nuw i8, ptr %7, i64 9
  %120 = load i8, ptr %119, align 1, !range !7, !noundef !8
  %121 = trunc nuw i8 %120 to i1
  br i1 %118, label %135, label %122

122:                                              ; preds = %115
  %123 = getelementptr inbounds nuw i8, ptr %5, i64 10
  %124 = load i8, ptr %123, align 2, !range !7, !noundef !8
  br i1 %121, label %132, label %125

125:                                              ; preds = %122
  %126 = getelementptr inbounds nuw i8, ptr %7, i64 10
  %127 = load i8, ptr %126, align 2, !range !7, !noundef !8
  %128 = icmp eq i8 %124, %127
  br i1 %128, label %range_cmp_bounds.exit12, label %129

129:                                              ; preds = %125
  %130 = trunc nuw i8 %124 to i1
  %131 = select i1 %130, i32 1, i32 -1
  br label %range_cmp_bounds.exit12

132:                                              ; preds = %122
  %133 = trunc nuw i8 %124 to i1
  %134 = select i1 %133, i32 1, i32 -1
  br label %range_cmp_bounds.exit12

135:                                              ; preds = %115
  br i1 %121, label %range_cmp_bounds.exit12, label %136

136:                                              ; preds = %135
  %137 = getelementptr inbounds nuw i8, ptr %7, i64 10
  %138 = load i8, ptr %137, align 2, !range !7, !noundef !8
  %139 = trunc nuw i8 %138 to i1
  %140 = select i1 %139, i32 -1, i32 1
  br label %range_cmp_bounds.exit12

range_cmp_bounds.exit12:                          ; preds = %15, %46, %69, %72, %76, %41, %37, %34, %136, %135, %132, %129, %125, %106, %101, %97, %94, %90, %18
  %.0 = phi i32 [ 1, %18 ], [ %96, %94 ], [ %99, %97 ], [ %105, %101 ], [ %140, %136 ], [ %134, %132 ], [ %131, %129 ], [ 0, %90 ], [ 0, %125 ], [ 0, %135 ], [ %113, %106 ], [ %53, %46 ], [ %71, %69 ], [ %74, %72 ], [ %80, %76 ], [ %45, %41 ], [ %39, %37 ], [ %36, %34 ], [ %spec.select, %15 ]
  call void @llvm.lifetime.end.p0(i64 1, ptr nonnull %9) #14
  call void @llvm.lifetime.end.p0(i64 1, ptr nonnull %8) #14
  call void @llvm.lifetime.end.p0(i64 16, ptr nonnull %7) #14
  call void @llvm.lifetime.end.p0(i64 16, ptr nonnull %6) #14
  call void @llvm.lifetime.end.p0(i64 16, ptr nonnull %5) #14
  call void @llvm.lifetime.end.p0(i64 16, ptr nonnull %4) #14
  ret i32 %.0
}